target datalayout = "e-m:e-p270:32:32-p271:32:32-p272:64:64-i64:64-i128:128-f80:128-n8:16:32:64-S128"
target triple = "x86_64-pc-linux-gnu"

; Function Attrs: mustprogress uwtable
define void @_ZN10CmdExtract20GetFirstVolIfFullSetEPKwbPwm(ptr noundef nonnull align 8 dereferenceable(16800) %0, ptr noundef %1, i1 noundef zeroext %2, ptr noundef %3, i64 noundef %4) #0 align 2 {
  %6 = alloca ptr, align 8
  %7 = alloca ptr, align 8
  %8 = alloca i8, align 1
  %9 = alloca ptr, align 8
  %10 = alloca i64, align 8
  %11 = alloca [2048 x i32], align 16
  %12 = alloca [2048 x i32], align 16
  %13 = alloca [2048 x i32], align 16
  store ptr %0, ptr %6, align 8
  store ptr %1, ptr %7, align 8
  %14 = zext i1 %2 to i8
  store i8 %14, ptr %8, align 1
  store ptr %3, ptr %9, align 8
  store i64 %4, ptr %10, align 8
  %15 = load ptr, ptr %7, align 8
  %16 = getelementptr inbounds [2048 x i32], ptr %11, i64 0, i64 0
  %17 = load i8, ptr %8, align 1
  %18 = trunc i8 %17 to i1
  %19 = call noundef ptr @_Z18VolNameToFirstNamePKwPwmb(ptr noundef %15, ptr noundef %16, i64 noundef 2048, i1 noundef zeroext %18)
  %20 = getelementptr inbounds [2048 x i32], ptr %12, i64 0, i64 0
  %21 = getelementptr inbounds [2048 x i32], ptr %11, i64 0, i64 0
  call void @_Z8wcsncpyzPwPKwm(ptr noundef %20, ptr noundef %21, i64 noundef 2048)
  %22 = getelementptr inbounds [2048 x i32], ptr %13, i64 0, i64 0
  %23 = load ptr, ptr %7, align 8
  call void @_Z8wcsncpyzPwPKwm(ptr noundef %22, ptr noundef %23, i64 noundef 2048)
  br label %24

24:                                               ; preds = %37, %5
  %25 = load ptr, ptr %7, align 8
  %26 = getelementptr inbounds [2048 x i32], ptr %12, i64 0, i64 0
  %27 = call i32 @wcscmp(ptr noundef %25, ptr noundef %26) #16
  %28 = icmp eq i32 %27, 0
  br i1 %28, label %29, label %33

29:                                               ; preds = %24
  %30 = getelementptr inbounds [2048 x i32], ptr %13, i64 0, i64 0
  %31 = getelementptr inbounds [2048 x i32], ptr %11, i64 0, i64 0
  %32 = load i64, ptr %10, align 8
  call void @_Z8wcsncpyzPwPKwm(ptr noundef %30, ptr noundef %31, i64 noundef %32)
  br label %42

33:                                               ; preds = %24
  %34 = getelementptr inbounds [2048 x i32], ptr %12, i64 0, i64 0
  %35 = call noundef zeroext i1 @_Z9FileExistPKw(ptr noundef %34)
  br i1 %35, label %37, label %36

36:                                               ; preds = %33
  br label %42

37:                                               ; preds = %33
  %38 = getelementptr inbounds [2048 x i32], ptr %12, i64 0, i64 0
  %39 = load i8, ptr %8, align 1
  %40 = trunc i8 %39 to i1
  %41 = xor i1 %40, true
  call void @_Z14NextVolumeNamePwjb(ptr noundef %38, i32 noundef 2048, i1 noundef zeroext %41)
  br label %24, !llvm.loop !19

42:                                               ; preds = %36, %29
  %43 = load ptr, ptr %9, align 8
  %44 = getelementptr inbounds [2048 x i32], ptr %13, i64 0, i64 0
  %45 = load i64, ptr %10, align 8
  call void @_Z8wcsncpyzPwPKwm(ptr noundef %43, ptr noundef %44, i64 noundef %45)
  ret void
}