; Function Attrs: mustprogress uwtable
define void @_ZN10CmdExtract20GetFirstVolIfFullSetEPKwbPwm(ptr nocapture nonnull readnone align 8 %0, ptr noundef %1, i1 noundef zeroext %2, ptr noundef %3, i64 noundef %4) local_unnamed_addr #0 align 2 {
  %6 = alloca [2048 x i32], align 16
  %7 = alloca [2048 x i32], align 16
  %8 = alloca [2048 x i32], align 16
  %9 = call noundef ptr @_Z18VolNameToFirstNamePKwPwmb(ptr noundef %1, ptr noundef nonnull %6, i64 noundef 2048, i1 noundef zeroext %2)
  call void @_Z8wcsncpyzPwPKwm(ptr noundef nonnull %7, ptr noundef nonnull %6, i64 noundef 2048)
  call void @_Z8wcsncpyzPwPKwm(ptr noundef nonnull %8, ptr noundef %1, i64 noundef 2048)
  %10 = call i32 @wcscmp(ptr noundef %1, ptr noundef nonnull %7) #22
  %11 = icmp eq i32 %10, 0
  br i1 %11, label %._crit_edge, label %.lr.ph

.lr.ph:                                           ; preds = %5
  %12 = xor i1 %2, true
  br label %13

._crit_edge:                                      ; preds = %15, %5
  call void @_Z8wcsncpyzPwPKwm(ptr noundef nonnull %8, ptr noundef nonnull %6, i64 noundef %4)
  br label %.loopexit

13:                                               ; preds = %.lr.ph, %15
  %14 = call noundef zeroext i1 @_Z9FileExistPKw(ptr noundef nonnull %7)
  br i1 %14, label %15, label %.loopexit

15:                                               ; preds = %13
  call void @_Z14NextVolumeNamePwjb(ptr noundef nonnull %7, i32 noundef 2048, i1 noundef zeroext %12)
  %16 = call i32 @wcscmp(ptr noundef %1, ptr noundef nonnull %7) #22
  %17 = icmp eq i32 %16, 0
  br i1 %17, label %._crit_edge, label %13, !llvm.loop !20

.loopexit:                                        ; preds = %13, %._crit_edge
  call void @_Z8wcsncpyzPwPKwm(ptr noundef %3, ptr noundef nonnull %8, i64 noundef %4)
  ret void
}